	.text
	.file	"dpu.c"
                                        // Start of file scope inline assembly
	.section	.data.my_barrier,"aw",@progbits
	.type	my_barrier,@object
	.globl	my_barrier
	.p2align	2
my_barrier:
	.byte	255
	.byte	1
	.byte	1
	.byte	__atomic_bit_barrier_my_barrier
	.size	my_barrier, 4
	.text

                                        // End of file scope inline assembly
	.file	1 "/home/protox" "upmem-sdk/bin/../share/upmem/include/stdlib/stdint.h"
	.file	2 "/home/protox/upmem/PIM_Benchmarking/bandwidthTest/1_copy_test/dpu" "dpu.c"
	.file	3 "/home/protox" "upmem-sdk/bin/../share/upmem/include/syslib/perfcounter.h"
	.section	.text.main,"ax",@progbits
	.globl	main                            // -- Begin function main
	.type	main,@function
main:                                   // @main
.Lfunc_begin0:
	.loc	2 22 0                          // dpu.c:22:0
	.cfi_sections .debug_frame
	.cfi_startproc
// %bb.0:
	.cfi_def_cfa_offset -72
	.cfi_offset 23, -8
	.cfi_offset 22, -4
	sd r22, 64, d22
	add r22, r22, 72
	sw r22, -72, 0
.Ltmp0:
	.loc	2 23 14 prologue_end            // dpu.c:23:14
	sd r22, -64, 0
	.loc	2 26 31                         // dpu.c:26:31
	call r23, me
	.loc	2 26 18 is_stmt 0               // dpu.c:26:18
	sw r22, -56, r0
.Ltmp1:
	.loc	2 29 9 is_stmt 1                // dpu.c:29:9
	lw r0, r22, -56
.Ltmp2:
	.loc	2 29 9 is_stmt 0                // dpu.c:29:9
	jneq r0, 0, .LBB0_2
	jump .LBB0_1
.LBB0_1:
.Ltmp3:
	.loc	2 30 9 is_stmt 1                // dpu.c:30:9
	call r23, mem_reset
	move r1, 1
	.loc	2 31 9                          // dpu.c:31:9
	move r0, r1
	call r23, perfcounter_config
	.loc	2 32 5                          // dpu.c:32:5
	jump .LBB0_2
.Ltmp4:
.LBB0_2:
	.loc	2 35 5                          // dpu.c:35:5
	move r0, my_barrier
	call r23, barrier_wait
.Ltmp5:
	.loc	2 38 20                         // dpu.c:38:20
	lw r0, r22, -56
	.loc	2 38 30 is_stmt 0               // dpu.c:38:30
	lsl r0, r0, 6
	.loc	2 38 20                         // dpu.c:38:20
	move.u d0, r0
	.loc	2 38 18                         // dpu.c:38:18
	sd r22, -32, d0
	.loc	2 38 9                          // dpu.c:38:9
	jump .LBB0_3
.LBB0_3:                                // =>This Loop Header: Depth=1
                                        //     Child Loop BB0_5 Depth 2
.Ltmp6:
	.loc	2 38 56                         // dpu.c:38:56
	ld d0, r22, -32
	.loc	2 38 59                         // dpu.c:38:59
	lw r3, r22, -56
	move r2, 64
	.loc	2 38 72                         // dpu.c:38:72
	lsl_add r2, r2, r3, 6
	.loc	2 38 58                         // dpu.c:38:58
	move.u d2, r2
.Ltmp7:
	.loc	2 38 5                          // dpu.c:38:5
	sub zero, r1, r3
	subc zero, r0, r2, geu, .LBB0_10
	jump .LBB0_4
.LBB0_4:                                //   in Loop: Header=BB0_3 Depth=1
.Ltmp8:
	.loc	2 40 27 is_stmt 1               // dpu.c:40:27
	lw r1, r22, -32
	.loc	2 40 20 is_stmt 0               // dpu.c:40:20
	move r0, buffer
	lsl_add r0, r0, r1, 3
	.loc	2 40 38                         // dpu.c:40:38
	lw r2, r22, -56
	.loc	2 40 32                         // dpu.c:40:32
	move r1, cache
	lsl_add r1, r1, r2, 8
	move r2, 256
	.loc	2 40 9                          // dpu.c:40:9
	call r23, mram_read
	.loc	2 43 22 is_stmt 1               // dpu.c:43:22
	call r23, perfcounter_get
	.loc	2 43 20 is_stmt 0               // dpu.c:43:20
	sd r22, -48, d0
.Ltmp9:
	.loc	2 44 22 is_stmt 1               // dpu.c:44:22
	sw r22, -24, 0
	.loc	2 44 13 is_stmt 0               // dpu.c:44:13
	jump .LBB0_5
.LBB0_5:                                //   Parent Loop BB0_3 Depth=1
                                        // =>  This Inner Loop Header: Depth=2
.Ltmp10:
	.loc	2 44 27                         // dpu.c:44:27
	lw r0, r22, -24
.Ltmp11:
	.loc	2 44 9                          // dpu.c:44:9
	jgtu r0, 31, .LBB0_8
	jump .LBB0_6
.LBB0_6:                                //   in Loop: Header=BB0_5 Depth=2
.Ltmp12:
	.loc	2 44 56                         // dpu.c:44:56
	lw r1, r22, -56
	.loc	2 44 50                         // dpu.c:44:50
	move r0, cache
	lsl_add r0, r0, r1, 8
	.loc	2 44 68                         // dpu.c:44:68
	lw r1, r22, -24
	.loc	2 44 50                         // dpu.c:44:50
	lsl_add r0, r0, r1, 3
	ld d0, r0, 0
	.loc	2 44 48                         // dpu.c:44:48
	//sd r22, -64, d0
	.loc	2 44 46                         // dpu.c:44:46
	jump .LBB0_7
.LBB0_7:                                //   in Loop: Header=BB0_5 Depth=2
	.loc	2 44 42                         // dpu.c:44:42
	lw r0, r22, -24
	add r0, r0, 1
	sw r22, -24, r0
	.loc	2 44 9                          // dpu.c:44:9
	jump .LBB0_5
.Ltmp13:
.LBB0_8:                                //   in Loop: Header=BB0_3 Depth=1
	.loc	2 45 20 is_stmt 1               // dpu.c:45:20
	call r23, perfcounter_get
	.loc	2 45 18 is_stmt 0               // dpu.c:45:18
	sd r22, -40, d0
	.loc	2 46 19 is_stmt 1               // dpu.c:46:19
	ld d0, r22, -40
	.loc	2 46 30 is_stmt 0               // dpu.c:46:30
	ld d2, r22, -48
	.loc	2 46 28                         // dpu.c:46:28
	sub r3, r1, r3
	subc r2, r0, r2
	.loc	2 46 16                         // dpu.c:46:16
	ld d0, zero, cycles
	add r1, r1, r3
	addc r0, r0, r2
	sd zero, cycles, d0
	.loc	2 48 5 is_stmt 1                // dpu.c:48:5
	jump .LBB0_9
.Ltmp14:
.LBB0_9:                                //   in Loop: Header=BB0_3 Depth=1
	.loc	2 38 99                         // dpu.c:38:99
	ld d0, r22, -32
	add r1, r1, 32
	addc r0, r0, 0
	sd r22, -32, d0
	.loc	2 38 5 is_stmt 0                // dpu.c:38:5
	jump .LBB0_3
.Ltmp15:
.LBB0_10:
	.loc	2 49 5 is_stmt 1                // dpu.c:49:5
	move r0, my_barrier
	call r23, barrier_wait
	.loc	2 50 52                         // dpu.c:50:52
	ld d2, zero, cycles
	.loc	2 50 5 is_stmt 0                // dpu.c:50:5
	move r0, r22
	sd r0, -16, d2
	move r0, .L.str
	call r23, printf
	move r0, 0
	.loc	2 51 5 is_stmt 1                // dpu.c:51:5
	ld d22, r22, -8
	jump r23
.Ltmp16:
.Lfunc_end0:
	.size	main, .Lfunc_end0-main
	.cfi_endproc
	.section	.stack_sizes,"o",@progbits,.text.main
	.long	.Lfunc_begin0
	.byte	72
	.section	.text.main,"ax",@progbits
                                        // -- End function
	.section	.text.mram_read,"ax",@progbits
	.type	mram_read,@function             // -- Begin function mram_read
mram_read:                              // @mram_read
.Lfunc_begin1:
	.file	4 "/home/protox" "upmem-sdk/bin/../share/upmem/include/syslib/mram.h"
	.loc	4 34 0                          // upmem-sdk/bin/../share/upmem/include/syslib/mram.h:34:0
	.cfi_startproc
// %bb.0:
	.cfi_def_cfa_offset 0
	sw r22, 0, r0
	sw r22, 4, r1
	sw r22, 8, r2
.Ltmp17:
	.loc	4 35 24 prologue_end            // upmem-sdk/bin/../share/upmem/include/syslib/mram.h:35:24
	lw r0, r22, 4
	.loc	4 35 28 is_stmt 0               // upmem-sdk/bin/../share/upmem/include/syslib/mram.h:35:28
	lw r1, r22, 0
	.loc	4 35 34                         // upmem-sdk/bin/../share/upmem/include/syslib/mram.h:35:34
	lw r3, r22, 8
	move r2, -1
	.loc	4 35 24                         // upmem-sdk/bin/../share/upmem/include/syslib/mram.h:35:24
	lsr_add r2, r2, r3, 3
	lsl_add r0, r0, r2, 24
	ldma r0, r1, 0
	.loc	4 36 1 is_stmt 1                // upmem-sdk/bin/../share/upmem/include/syslib/mram.h:36:1
	jump r23
.Ltmp18:
.Lfunc_end1:
	.size	mram_read, .Lfunc_end1-mram_read
	.cfi_endproc
	.section	.stack_sizes,"o",@progbits,.text.mram_read
	.long	.Lfunc_begin1
	.byte	12
	.section	.text.mram_read,"ax",@progbits
                                        // -- End function
	.section	.text.me,"ax",@progbits
	.type	me,@function                    // -- Begin function me
me:                                     // @me
.Lfunc_begin2:
	.file	5 "/home/protox" "upmem-sdk/bin/../share/upmem/include/syslib/defs.h"
	.loc	5 34 0                          // upmem-sdk/bin/../share/upmem/include/syslib/defs.h:34:0
	.cfi_startproc
// %bb.0:
	.cfi_def_cfa_offset 0
	.loc	5 35 12 prologue_end            // upmem-sdk/bin/../share/upmem/include/syslib/defs.h:35:12
	move r0, id
	.loc	5 35 5 is_stmt 0                // upmem-sdk/bin/../share/upmem/include/syslib/defs.h:35:5
	jump r23
.Ltmp19:
.Lfunc_end2:
	.size	me, .Lfunc_end2-me
	.cfi_endproc
	.section	.stack_sizes,"o",@progbits,.text.me
	.long	.Lfunc_begin2
	.byte	0
	.section	.text.me,"ax",@progbits
                                        // -- End function
	.type	buffer,@object                  // @buffer
	.section	.mram,"aw",@progbits
	.globl	buffer
	.p2align	3
buffer:
	.zero	5632
	.size	buffer, 5632

	.type	cache,@object                   // @cache
	.section	.bss.cache,"aw",@nobits
	.globl	cache
	.p2align	3
cache:
	.zero	256
	.size	cache, 256

	.type	cycles,@object                  // @cycles
	.section	.dpu_host,"aw",@progbits
	.globl	cycles
	.p2align	3
cycles:
	.quad	0                               // 0x0
	.size	cycles, 8

	.type	.L.str,@object                  // @.str
	.section	.rodata.str1.1,"aMS",@progbits,1
.L.str:
	.asciz	"Total Number of Cycles Required: %lu"
	.size	.L.str, 37

	.type	__atomic_bit_barrier_my_barrier,@object // @__atomic_bit_barrier_my_barrier
	.section	.atomic,"aw",@progbits
	.globl	__atomic_bit_barrier_my_barrier
__atomic_bit_barrier_my_barrier:
	.byte	0                               // 0x0
	.size	__atomic_bit_barrier_my_barrier, 1

	.file	6 "/home/protox" "upmem-sdk/bin/../share/upmem/include/syslib/sysdef.h"